target datalayout = "e-m:e-p270:32:32-p271:32:32-p272:64:64-i64:64-i128:128-f80:128-n8:16:32:64-S128"
target triple = "x86_64-pc-linux-gnu"

%struct.AVProbeData = type { ptr, ptr, i32, ptr }

; Function Attrs: alwaysinline nounwind willreturn memory(none) uwtable
define internal zeroext i16 @av_bswap16(i16 noundef zeroext %0) #2 {
  %2 = alloca i16, align 2
  store i16 %0, ptr %2, align 2, !tbaa !43
  %3 = load i16, ptr %2, align 2, !tbaa !43
  %4 = zext i16 %3 to i32
  %5 = ashr i32 %4, 8
  %6 = load i16, ptr %2, align 2, !tbaa !43
  %7 = zext i16 %6 to i32
  %8 = shl i32 %7, 8
  %9 = or i32 %5, %8
  %10 = trunc i32 %9 to i16
  store i16 %10, ptr %2, align 2, !tbaa !43
  %11 = load i16, ptr %2, align 2, !tbaa !43
  ret i16 %11
}

; Function Attrs: nounwind uwtable
define internal i32 @avr_probe(ptr noundef %0) #0 {
  %2 = alloca i32, align 4
  %3 = alloca ptr, align 8
  store ptr %0, ptr %3, align 8, !tbaa !4
  %4 = load ptr, ptr %3, align 8, !tbaa !4
  %5 = getelementptr inbounds nuw %struct.AVProbeData, ptr %4, i32 0, i32 1
  %6 = load ptr, ptr %5, align 8, !tbaa !9
  %7 = load i32, ptr %6, align 1, !tbaa !13
  %8 = icmp ne i32 %7, 1414087218
  br i1 %8, label %9, label %10

9:                                                ; preds = %1
  store i32 0, ptr %2, align 4
  br label %39

10:                                               ; preds = %1
  %11 = load ptr, ptr %3, align 8, !tbaa !4
  %12 = getelementptr inbounds nuw %struct.AVProbeData, ptr %11, i32 0, i32 1
  %13 = load ptr, ptr %12, align 8, !tbaa !9
  %14 = getelementptr inbounds i8, ptr %13, i64 12
  %15 = load i16, ptr %14, align 1, !tbaa !13
  %16 = call zeroext i16 @av_bswap16(i16 noundef zeroext %15) #4
  %17 = icmp ne i16 %16, 0
  br i1 %17, label %18, label %27

18:                                               ; preds = %10
  %19 = load ptr, ptr %3, align 8, !tbaa !4
  %20 = getelementptr inbounds nuw %struct.AVProbeData, ptr %19, i32 0, i32 1
  %21 = load ptr, ptr %20, align 8, !tbaa !9
  %22 = getelementptr inbounds i8, ptr %21, i64 12
  %23 = load i16, ptr %22, align 1, !tbaa !13
  %24 = call zeroext i16 @av_bswap16(i16 noundef zeroext %23) #4
  %25 = zext i16 %24 to i32
  %26 = icmp sgt i32 %25, 256
  br i1 %26, label %27, label %28

27:                                               ; preds = %18, %10
  store i32 25, ptr %2, align 4
  br label %39

28:                                               ; preds = %18
  %29 = load ptr, ptr %3, align 8, !tbaa !4
  %30 = getelementptr inbounds nuw %struct.AVProbeData, ptr %29, i32 0, i32 1
  %31 = load ptr, ptr %30, align 8, !tbaa !9
  %32 = getelementptr inbounds i8, ptr %31, i64 14
  %33 = load i16, ptr %32, align 1, !tbaa !13
  %34 = call zeroext i16 @av_bswap16(i16 noundef zeroext %33) #4
  %35 = zext i16 %34 to i32
  %36 = icmp sgt i32 %35, 256
  br i1 %36, label %37, label %38

37:                                               ; preds = %28
  store i32 25, ptr %2, align 4
  br label %39

38:                                               ; preds = %28
  store i32 50, ptr %2, align 4
  br label %39

39:                                               ; preds = %38, %37, %27, %9
  %40 = load i32, ptr %2, align 4
  ret i32 %40
}