; Function Attrs: mustprogress nofree norecurse nosync nounwind willreturn memory(read, inaccessiblemem: none) uwtable
define internal range(i32 0, 51) i32 @avr_probe(ptr noundef readonly captures(none) %0) #0 {
  %2 = getelementptr inbounds nuw i8, ptr %0, i64 8
  %3 = load ptr, ptr %2, align 8, !tbaa !4
  %4 = load i32, ptr %3, align 1, !tbaa !11
  %.not = icmp eq i32 %4, 1414087218
  br i1 %.not, label %5, label %15

5:                                                ; preds = %1
  %6 = getelementptr inbounds nuw i8, ptr %3, i64 12
  %7 = load i16, ptr %6, align 1, !tbaa !11
  %8 = tail call i16 @llvm.bswap.i16(i16 %7)
  %.not5 = icmp eq i16 %7, 0
  %9 = icmp ugt i16 %8, 256
  %or.cond = or i1 %.not5, %9
  br i1 %or.cond, label %15, label %10

10:                                               ; preds = %5
  %11 = getelementptr inbounds nuw i8, ptr %3, i64 14
  %12 = load i16, ptr %11, align 1, !tbaa !11
  %13 = tail call i16 @llvm.bswap.i16(i16 %12)
  %14 = icmp ugt i16 %13, 256
  %. = select i1 %14, i32 25, i32 50
  br label %15

15:                                               ; preds = %10, %5, %1
  %.0 = phi i32 [ 0, %1 ], [ 25, %5 ], [ %., %10 ]
  ret i32 %.0
}